; Function Attrs: mustprogress nounwind uwtable
define dso_local noundef ptr @_ZN4llvm9MDBuilder27createFunctionSectionPrefixENS_9StringRefE(ptr nocapture noundef nonnull readonly align 8 dereferenceable(8) %0, ptr %1, i64 %2) local_unnamed_addr #0 align 2 {
  %4 = alloca [2 x ptr], align 8
  %5 = load ptr, ptr %0, align 8
  %6 = tail call noundef ptr @_ZN4llvm8MDString3getERNS_11LLVMContextENS_9StringRefE(ptr noundef nonnull align 8 dereferenceable(8) %5, ptr nonnull @.str.4, i64 23) #8
  store ptr %6, ptr %4, align 8
  %7 = getelementptr inbounds i8, ptr %4, i64 8
  %8 = load ptr, ptr %0, align 8
  %9 = tail call noundef ptr @_ZN4llvm8MDString3getERNS_11LLVMContextENS_9StringRefE(ptr noundef nonnull align 8 dereferenceable(8) %8, ptr %1, i64 %2) #8
  store ptr %9, ptr %7, align 8
  %10 = call noundef ptr @_ZN4llvm7MDTuple7getImplERNS_11LLVMContextENS_8ArrayRefIPNS_8MetadataEEENS4_11StorageTypeEb(ptr noundef nonnull align 8 dereferenceable(8) %5, ptr nonnull %4, i64 2, i32 noundef 0, i1 noundef zeroext true) #8
  ret ptr %10
}